target datalayout = "e-m:e-p270:32:32-p271:32:32-p272:64:64-i64:64-i128:128-f80:128-n8:16:32:64-S128"
target triple = "x86_64-unknown-linux-gnu"

%struct.QIODNSResolverLookupData = type { ptr, ptr, i64 }

@.str = private unnamed_addr constant [17 x i8] c"qio-dns-resolver\00", align 1
@.str.1 = private unnamed_addr constant [104 x i8] c"/home/dtcxzyw/WorkSpace/Projects/compilers/llvm-opt-benchmark/bench/qemu/qemu/include/io/dns-resolver.h\00", align 1
@__func__.QIO_DNS_RESOLVER = private unnamed_addr constant [17 x i8] c"QIO_DNS_RESOLVER\00", align 1

; Function Attrs: nounwind sspstrong uwtable
define internal ptr @QIO_DNS_RESOLVER(ptr noundef %obj) #0 {
entry:
  %obj.addr = alloca ptr, align 8
  store ptr %obj, ptr %obj.addr, align 8
  %0 = load ptr, ptr %obj.addr, align 8
  %call = call ptr @object_dynamic_cast_assert(ptr noundef %0, ptr noundef @.str, ptr noundef @.str.1, i32 noundef 30, ptr noundef @__func__.QIO_DNS_RESOLVER)
  ret ptr %call
}

; Function Attrs: nounwind sspstrong uwtable
define internal void @qio_dns_resolver_lookup_worker(ptr noundef %task, ptr noundef %opaque) #0 {
entry:
  %task.addr = alloca ptr, align 8
  %opaque.addr = alloca ptr, align 8
  %resolver = alloca ptr, align 8
  %data = alloca ptr, align 8
  %err = alloca ptr, align 8
  store ptr %task, ptr %task.addr, align 8
  store ptr %opaque, ptr %opaque.addr, align 8
  %0 = load ptr, ptr %task.addr, align 8
  %call = call ptr @qio_task_get_source(ptr noundef %0)
  %call1 = call ptr @QIO_DNS_RESOLVER(ptr noundef %call)
  store ptr %call1, ptr %resolver, align 8
  %1 = load ptr, ptr %opaque.addr, align 8
  store ptr %1, ptr %data, align 8
  store ptr null, ptr %err, align 8
  %2 = load ptr, ptr %resolver, align 8
  %3 = load ptr, ptr %data, align 8
  %addr = getelementptr inbounds %struct.QIODNSResolverLookupData, ptr %3, i32 0, i32 0
  %4 = load ptr, ptr %addr, align 8
  %5 = load ptr, ptr %data, align 8
  %naddrs = getelementptr inbounds %struct.QIODNSResolverLookupData, ptr %5, i32 0, i32 2
  %6 = load ptr, ptr %data, align 8
  %addrs = getelementptr inbounds %struct.QIODNSResolverLookupData, ptr %6, i32 0, i32 1
  %call2 = call i32 @qio_dns_resolver_lookup_sync(ptr noundef %2, ptr noundef %4, ptr noundef %naddrs, ptr noundef %addrs, ptr noundef %err)
  %7 = load ptr, ptr %err, align 8
  %tobool = icmp ne ptr %7, null
  br i1 %tobool, label %if.then, label %if.else

if.then:                                          ; preds = %entry
  %8 = load ptr, ptr %task.addr, align 8
  %9 = load ptr, ptr %err, align 8
  call void @qio_task_set_error(ptr noundef %8, ptr noundef %9)
  br label %if.end

if.else:                                          ; preds = %entry
  %10 = load ptr, ptr %task.addr, align 8
  %11 = load ptr, ptr %opaque.addr, align 8
  call void @qio_task_set_result_pointer(ptr noundef %10, ptr noundef %11, ptr noundef null)
  br label %if.end

if.end:                                           ; preds = %if.else, %if.then
  %12 = load ptr, ptr %resolver, align 8
  call void @object_unref(ptr noundef %12)
  ret void
}