; Function Attrs: nounwind sspstrong uwtable
define internal void @qio_dns_resolver_lookup_worker(ptr noundef %task, ptr noundef %opaque) #0 {
entry:
  %err = alloca ptr, align 8
  %call = tail call ptr @qio_task_get_source(ptr noundef %task) #7
  %call.i = tail call ptr @object_dynamic_cast_assert(ptr noundef %call, ptr noundef nonnull @.str, ptr noundef nonnull @.str.1, i32 noundef 30, ptr noundef nonnull @__func__.QIO_DNS_RESOLVER) #7
  store ptr null, ptr %err, align 8
  %0 = load ptr, ptr %opaque, align 8
  %naddrs = getelementptr inbounds nuw i8, ptr %opaque, i64 16
  %addrs = getelementptr inbounds nuw i8, ptr %opaque, i64 8
  %call2 = call i32 @qio_dns_resolver_lookup_sync(ptr poison, ptr noundef %0, ptr noundef nonnull %naddrs, ptr noundef nonnull %addrs, ptr noundef nonnull %err)
  %1 = load ptr, ptr %err, align 8
  %tobool.not = icmp eq ptr %1, null
  br i1 %tobool.not, label %if.else, label %if.then

if.then:                                          ; preds = %entry
  call void @qio_task_set_error(ptr noundef %task, ptr noundef nonnull %1) #7
  br label %if.end

if.else:                                          ; preds = %entry
  call void @qio_task_set_result_pointer(ptr noundef %task, ptr noundef nonnull %opaque, ptr noundef null) #7
  br label %if.end

if.end:                                           ; preds = %if.else, %if.then
  call void @object_unref(ptr noundef %call.i) #7
  ret void
}